; ModuleID = 'source-C-CXX/25/876.c'
source_filename = "source-C-CXX/25/876.c"
target datalayout = "e-m:e-p270:32:32-p271:32:32-p272:64:64-i64:64-f80:128-n8:16:32:64-S128"
target triple = "x86_64-pc-linux-gnu"

; Function Attrs: nounwind sspstrong uwtable
define dso_local i32 @main() local_unnamed_addr #0 {
  %1 = alloca [100 x i8], align 16
  %2 = alloca [100 x i8], align 16
  %3 = alloca [100 x i32], align 16
  %4 = getelementptr inbounds [100 x i8], [100 x i8]* %1, i64 0, i64 0
  call void @llvm.lifetime.start.p0i8(i64 100, i8* nonnull %4) #5
  %5 = getelementptr inbounds [100 x i8], [100 x i8]* %2, i64 0, i64 0
  call void @llvm.lifetime.start.p0i8(i64 100, i8* nonnull %5) #5
  %6 = bitcast [100 x i32]* %3 to i8*
  call void @llvm.lifetime.start.p0i8(i64 400, i8* nonnull %6) #5
  call void @llvm.memset.p0i8.i64(i8* noundef nonnull align 16 dereferenceable(400) %6, i8 0, i64 400, i1 false)
  %7 = call i32 (i8*, ...) bitcast (i32 (...)* @gets to i32 (i8*, ...)*)(i8* nonnull %4) #5
  br label %8

8:                                                ; preds = %22, %0
  %9 = phi i64 [ %23, %22 ], [ 1, %0 ]
  %10 = getelementptr inbounds [100 x i8], [100 x i8]* %1, i64 0, i64 %9
  %11 = load i8, i8* %10, align 1, !tbaa !5
  switch i8 %11, label %22 [
    i8 0, label %12
    i8 32, label %15
  ]

12:                                               ; preds = %8
  %13 = load i8, i8* %4, align 16, !tbaa !5
  %14 = icmp eq i8 %13, 0
  br i1 %14, label %41, label %24

15:                                               ; preds = %8
  %16 = add nsw i64 %9, -1
  %17 = getelementptr inbounds [100 x i8], [100 x i8]* %1, i64 0, i64 %16
  %18 = load i8, i8* %17, align 1, !tbaa !5
  %19 = icmp eq i8 %18, 32
  br i1 %19, label %20, label %22

20:                                               ; preds = %15
  %21 = getelementptr inbounds [100 x i32], [100 x i32]* %3, i64 0, i64 %9
  store i32 1, i32* %21, align 4, !tbaa !8
  br label %22

22:                                               ; preds = %8, %15, %20
  %23 = add nuw i64 %9, 1
  br label %8, !llvm.loop !10

24:                                               ; preds = %12, %35
  %25 = phi i64 [ %37, %35 ], [ 0, %12 ]
  %26 = phi i8 [ %39, %35 ], [ %13, %12 ]
  %27 = phi i32 [ %36, %35 ], [ 0, %12 ]
  %28 = getelementptr inbounds [100 x i32], [100 x i32]* %3, i64 0, i64 %25
  %29 = load i32, i32* %28, align 4, !tbaa !8
  %30 = icmp eq i32 %29, 0
  br i1 %30, label %31, label %35

31:                                               ; preds = %24
  %32 = sext i32 %27 to i64
  %33 = getelementptr inbounds [100 x i8], [100 x i8]* %2, i64 0, i64 %32
  store i8 %26, i8* %33, align 1, !tbaa !5
  %34 = add nsw i32 %27, 1
  br label %35

35:                                               ; preds = %24, %31
  %36 = phi i32 [ %34, %31 ], [ %27, %24 ]
  %37 = add nuw i64 %25, 1
  %38 = getelementptr inbounds [100 x i8], [100 x i8]* %1, i64 0, i64 %37
  %39 = load i8, i8* %38, align 1, !tbaa !5
  %40 = icmp eq i8 %39, 0
  br i1 %40, label %41, label %24, !llvm.loop !12

41:                                               ; preds = %35, %12
  %42 = phi i32 [ 0, %12 ], [ %36, %35 ]
  %43 = sext i32 %42 to i64
  %44 = getelementptr inbounds [100 x i8], [100 x i8]* %2, i64 0, i64 %43
  store i8 0, i8* %44, align 1, !tbaa !5
  %45 = call i32 @puts(i8* nonnull %5)
  call void @llvm.lifetime.end.p0i8(i64 400, i8* nonnull %6) #5
  call void @llvm.lifetime.end.p0i8(i64 100, i8* nonnull %5) #5
  call void @llvm.lifetime.end.p0i8(i64 100, i8* nonnull %4) #5
  ret i32 0
}

; Function Attrs: argmemonly mustprogress nofree nosync nounwind willreturn
declare void @llvm.lifetime.start.p0i8(i64 immarg, i8* nocapture) #1

; Function Attrs: argmemonly mustprogress nofree nounwind willreturn writeonly
declare void @llvm.memset.p0i8.i64(i8* nocapture writeonly, i8, i64, i1 immarg) #2

declare i32 @gets(...) local_unnamed_addr #3

; Function Attrs: nofree nounwind
declare noundef i32 @puts(i8* nocapture noundef readonly) local_unnamed_addr #4

; Function Attrs: argmemonly mustprogress nofree nosync nounwind willreturn
declare void @llvm.lifetime.end.p0i8(i64 immarg, i8* nocapture) #1


!llvm.module.flags = !{!0, !1, !2, !3}
!llvm.ident = !{!4}

!0 = !{i32 1, !"wchar_size", i32 4}
!1 = !{i32 7, !"PIC Level", i32 2}
!2 = !{i32 7, !"PIE Level", i32 2}
!3 = !{i32 7, !"uwtable", i32 1}
!4 = !{!"clang version 13.0.0"}
!5 = !{!6, !6, i64 0}
!6 = !{!"omnipotent char", !7, i64 0}
!7 = !{!"Simple C/C++ TBAA"}
!8 = !{!9, !9, i64 0}
!9 = !{!"int", !6, i64 0}
!10 = distinct !{!10, !11}
!11 = !{!"llvm.loop.mustprogress"}
!12 = distinct !{!12, !11}
